target datalayout = "e-m:e-p270:32:32-p271:32:32-p272:64:64-i64:64-i128:128-f80:128-n8:16:32:64-S128"
target triple = "x86_64-pc-linux-gnu"

%struct.strbuf = type { i64, i64, ptr }

@.str = private unnamed_addr constant [20 x i8] c"fetch.fsck.skiplist\00", align 1
@.str.1 = private unnamed_addr constant [14 x i8] c"%cskiplist=%s\00", align 1
@.str.2 = private unnamed_addr constant [12 x i8] c"fetch.fsck.\00", align 1
@.str.3 = private unnamed_addr constant [8 x i8] c"%c%s=%s\00", align 1
@.str.4 = private unnamed_addr constant [29 x i8] c"Skipping unknown msg id '%s'\00", align 1

; Function Attrs: inlinehint nounwind uwtable
define internal i32 @const_error() #5 {
  ret i32 -1
}

; Function Attrs: inlinehint nounwind uwtable
define internal zeroext i1 @skip_prefix(ptr noundef %0, ptr noundef %1, ptr noundef %2) #5 {
  %4 = alloca i1, align 1
  %5 = alloca ptr, align 8
  %6 = alloca ptr, align 8
  %7 = alloca ptr, align 8
  store ptr %0, ptr %5, align 8, !tbaa !4
  store ptr %1, ptr %6, align 8, !tbaa !4
  store ptr %2, ptr %7, align 8, !tbaa !14
  br label %8

8:                                                ; preds = %16, %3
  %9 = load ptr, ptr %6, align 8, !tbaa !4
  %10 = load i8, ptr %9, align 1, !tbaa !16
  %11 = icmp ne i8 %10, 0
  br i1 %11, label %15, label %12

12:                                               ; preds = %8
  %13 = load ptr, ptr %5, align 8, !tbaa !4
  %14 = load ptr, ptr %7, align 8, !tbaa !14
  store ptr %13, ptr %14, align 8, !tbaa !4
  store i1 true, ptr %4, align 1
  br label %27

15:                                               ; preds = %8
  br label %16

16:                                               ; preds = %15
  %17 = load ptr, ptr %5, align 8, !tbaa !4
  %18 = getelementptr inbounds nuw i8, ptr %17, i32 1
  store ptr %18, ptr %5, align 8, !tbaa !4
  %19 = load i8, ptr %17, align 1, !tbaa !16
  %20 = sext i8 %19 to i32
  %21 = load ptr, ptr %6, align 8, !tbaa !4
  %22 = getelementptr inbounds nuw i8, ptr %21, i32 1
  store ptr %22, ptr %6, align 8, !tbaa !4
  %23 = load i8, ptr %21, align 1, !tbaa !16
  %24 = sext i8 %23 to i32
  %25 = icmp eq i32 %20, %24
  br i1 %25, label %8, label %26, !llvm.loop !17

26:                                               ; preds = %16
  store i1 false, ptr %4, align 1
  br label %27

27:                                               ; preds = %26, %12
  %28 = load i1, ptr %4, align 1
  ret i1 %28
}

; Function Attrs: nounwind uwtable
define dso_local i32 @fetch_pack_fsck_config(ptr noundef %0, ptr noundef %1, ptr noundef %2) #0 {
  %4 = alloca i32, align 4
  %5 = alloca ptr, align 8
  %6 = alloca ptr, align 8
  %7 = alloca ptr, align 8
  %8 = alloca ptr, align 8
  %9 = alloca ptr, align 8
  %10 = alloca i32, align 4
  store ptr %0, ptr %5, align 8, !tbaa !4
  store ptr %1, ptr %6, align 8, !tbaa !4
  store ptr %2, ptr %7, align 8, !tbaa !9
  call void @llvm.lifetime.start.p0(i64 8, ptr %8) #11
  %11 = load ptr, ptr %5, align 8, !tbaa !4
  %12 = call i32 @strcmp(ptr noundef %11, ptr noundef @.str) #12
  %13 = icmp eq i32 %12, 0
  br i1 %13, label %14, label %30

14:                                               ; preds = %3
  call void @llvm.lifetime.start.p0(i64 8, ptr %9) #11
  %15 = load ptr, ptr %5, align 8, !tbaa !4
  %16 = load ptr, ptr %6, align 8, !tbaa !4
  %17 = call i32 @git_config_pathname(ptr noundef %9, ptr noundef %15, ptr noundef %16)
  %18 = icmp ne i32 %17, 0
  br i1 %18, label %19, label %20

19:                                               ; preds = %14
  store i32 -1, ptr %4, align 4
  store i32 1, ptr %10, align 4
  br label %29

20:                                               ; preds = %14
  %21 = load ptr, ptr %7, align 8, !tbaa !9
  %22 = load ptr, ptr %7, align 8, !tbaa !9
  %23 = getelementptr inbounds nuw %struct.strbuf, ptr %22, i32 0, i32 1
  %24 = load i64, ptr %23, align 8, !tbaa !11
  %25 = icmp ne i64 %24, 0
  %26 = select i1 %25, i32 44, i32 61
  %27 = load ptr, ptr %9, align 8, !tbaa !4
  call void (ptr, ptr, ...) @strbuf_addf(ptr noundef %21, ptr noundef @.str.1, i32 noundef %26, ptr noundef %27)
  %28 = load ptr, ptr %9, align 8, !tbaa !4
  call void @free(ptr noundef %28) #11
  store i32 0, ptr %4, align 4
  store i32 1, ptr %10, align 4
  br label %29

29:                                               ; preds = %20, %19
  call void @llvm.lifetime.end.p0(i64 8, ptr %9) #11
  br label %58

30:                                               ; preds = %3
  %31 = load ptr, ptr %5, align 8, !tbaa !4
  %32 = call zeroext i1 @skip_prefix(ptr noundef %31, ptr noundef @.str.2, ptr noundef %8)
  br i1 %32, label %33, label %57

33:                                               ; preds = %30
  %34 = load ptr, ptr %6, align 8, !tbaa !4
  %35 = icmp ne ptr %34, null
  br i1 %35, label %40, label %36

36:                                               ; preds = %33
  %37 = load ptr, ptr %5, align 8, !tbaa !4
  %38 = call i32 @config_error_nonbool(ptr noundef %37)
  %39 = call i32 @const_error()
  store i32 %39, ptr %4, align 4
  store i32 1, ptr %10, align 4
  br label %58

40:                                               ; preds = %33
  %41 = load ptr, ptr %8, align 8, !tbaa !4
  %42 = load ptr, ptr %6, align 8, !tbaa !4
  %43 = call i32 @is_valid_msg_type(ptr noundef %41, ptr noundef %42)
  %44 = icmp ne i32 %43, 0
  br i1 %44, label %45, label %54

45:                                               ; preds = %40
  %46 = load ptr, ptr %7, align 8, !tbaa !9
  %47 = load ptr, ptr %7, align 8, !tbaa !9
  %48 = getelementptr inbounds nuw %struct.strbuf, ptr %47, i32 0, i32 1
  %49 = load i64, ptr %48, align 8, !tbaa !11
  %50 = icmp ne i64 %49, 0
  %51 = select i1 %50, i32 44, i32 61
  %52 = load ptr, ptr %8, align 8, !tbaa !4
  %53 = load ptr, ptr %6, align 8, !tbaa !4
  call void (ptr, ptr, ...) @strbuf_addf(ptr noundef %46, ptr noundef @.str.3, i32 noundef %51, ptr noundef %52, ptr noundef %53)
  br label %56

54:                                               ; preds = %40
  %55 = load ptr, ptr %8, align 8, !tbaa !4
  call void (ptr, ...) @warning(ptr noundef @.str.4, ptr noundef %55)
  br label %56

56:                                               ; preds = %54, %45
  store i32 0, ptr %4, align 4
  store i32 1, ptr %10, align 4
  br label %58

57:                                               ; preds = %30
  store i32 1, ptr %4, align 4
  store i32 1, ptr %10, align 4
  br label %58

58:                                               ; preds = %57, %56, %36, %29
  call void @llvm.lifetime.end.p0(i64 8, ptr %8) #11
  %59 = load i32, ptr %4, align 4
  ret i32 %59
}