; Function Attrs: nounwind uwtable
define dso_local range(i32 -1, 2) i32 @fetch_pack_fsck_config(ptr noundef %0, ptr noundef %1, ptr noundef %2) local_unnamed_addr #0 {
  %4 = alloca ptr, align 8
  %5 = tail call i32 @strcmp(ptr noundef nonnull dereferenceable(1) %0, ptr noundef nonnull dereferenceable(20) @.str) #19
  %6 = icmp eq i32 %5, 0
  br i1 %6, label %7, label %.preheader.preheader

.preheader.preheader:                             ; preds = %3
  %scevgep = getelementptr i8, ptr %0, i64 11
  br label %.preheader

7:                                                ; preds = %3
  call void @llvm.lifetime.start.p0(i64 8, ptr nonnull %4) #20
  %8 = call i32 @git_config_pathname(ptr noundef nonnull %4, ptr noundef nonnull %0, ptr noundef %1) #20
  %.not15 = icmp eq i32 %8, 0
  br i1 %.not15, label %9, label %15

9:                                                ; preds = %7
  %10 = getelementptr inbounds nuw i8, ptr %2, i64 8
  %11 = load i64, ptr %10, align 8, !tbaa !4
  %.not16 = icmp eq i64 %11, 0
  %12 = select i1 %.not16, i32 61, i32 44
  %13 = load ptr, ptr %4, align 8, !tbaa !11
  call void (ptr, ptr, ...) @strbuf_addf(ptr noundef %2, ptr noundef nonnull @.str.1, i32 noundef %12, ptr noundef %13) #20
  %14 = load ptr, ptr %4, align 8, !tbaa !11
  call void @free(ptr noundef %14) #20
  br label %15

15:                                               ; preds = %7, %9
  %.0 = phi i32 [ 0, %9 ], [ -1, %7 ]
  call void @llvm.lifetime.end.p0(i64 8, ptr nonnull %4) #20
  br label %skip_prefix.exit

.preheader:                                       ; preds = %.preheader.preheader, %16
  %.07.i = phi ptr [ %18, %16 ], [ %0, %.preheader.preheader ]
  %.06.i.idx = phi i64 [ %.06.i.add, %16 ], [ 0, %.preheader.preheader ]
  %exitcond = icmp eq i64 %.06.i.idx, 11
  br i1 %exitcond, label %21, label %16

16:                                               ; preds = %.preheader
  %.06.i.ptr = getelementptr inbounds nuw i8, ptr @.str.2, i64 %.06.i.idx
  %17 = load i8, ptr %.06.i.ptr, align 1, !tbaa !12
  %18 = getelementptr inbounds nuw i8, ptr %.07.i, i64 1
  %19 = load i8, ptr %.07.i, align 1, !tbaa !12
  %.06.i.add = add nuw nsw i64 %.06.i.idx, 1
  %20 = icmp eq i8 %19, %17
  br i1 %20, label %.preheader, label %skip_prefix.exit, !llvm.loop !13

21:                                               ; preds = %.preheader
  %.not = icmp eq ptr %1, null
  br i1 %.not, label %22, label %24

22:                                               ; preds = %21
  %23 = tail call i32 @config_error_nonbool(ptr noundef nonnull %0) #20
  br label %skip_prefix.exit

24:                                               ; preds = %21
  %25 = tail call i32 @is_valid_msg_type(ptr noundef nonnull %scevgep, ptr noundef nonnull %1) #20
  %.not13 = icmp eq i32 %25, 0
  br i1 %.not13, label %30, label %26

26:                                               ; preds = %24
  %27 = getelementptr inbounds nuw i8, ptr %2, i64 8
  %28 = load i64, ptr %27, align 8, !tbaa !4
  %.not14 = icmp eq i64 %28, 0
  %29 = select i1 %.not14, i32 61, i32 44
  tail call void (ptr, ptr, ...) @strbuf_addf(ptr noundef %2, ptr noundef nonnull @.str.3, i32 noundef %29, ptr noundef nonnull %scevgep, ptr noundef nonnull %1) #20
  br label %skip_prefix.exit

30:                                               ; preds = %24
  tail call void (ptr, ...) @warning(ptr noundef nonnull @.str.4, ptr noundef nonnull %scevgep) #20
  br label %skip_prefix.exit

skip_prefix.exit:                                 ; preds = %16, %26, %30, %22, %15
  %.1 = phi i32 [ %.0, %15 ], [ -1, %22 ], [ 0, %30 ], [ 0, %26 ], [ 1, %16 ]
  ret i32 %.1
}